; Function Attrs: nounwind uwtable
define dso_local i32 @Curl_add_timecondition(ptr noundef %0, ptr noundef %1) local_unnamed_addr #0 {
  %3 = alloca %struct.tm, align 8
  %4 = alloca [80 x i8], align 16
  call void @llvm.lifetime.start.p0(i64 56, ptr nonnull %3) #11
  call void @llvm.lifetime.start.p0(i64 80, ptr nonnull %4) #11
  %5 = getelementptr inbounds nuw i8, ptr %0, i64 1320
  %6 = load i8, ptr %5, align 8, !tbaa !152
  %7 = icmp eq i8 %6, 0
  br i1 %7, label %43, label %8

8:                                                ; preds = %2
  %9 = getelementptr inbounds nuw i8, ptr %0, i64 1312
  %10 = load i64, ptr %9, align 8, !tbaa !153
  %11 = call i32 @Curl_gmtime(i64 noundef %10, ptr noundef nonnull %3) #11
  %.not = icmp eq i32 %11, 0
  br i1 %.not, label %13, label %12

12:                                               ; preds = %8
  call void (ptr, ptr, ...) @Curl_failf(ptr noundef nonnull %0, ptr noundef nonnull @.str.19) #11
  br label %43

13:                                               ; preds = %8
  %14 = load i8, ptr %5, align 8, !tbaa !152
  %switch.tableidx = add i8 %14, -1
  %15 = icmp ult i8 %switch.tableidx, 3
  br i1 %15, label %switch.lookup, label %43

switch.lookup:                                    ; preds = %13
  %16 = zext nneg i8 %switch.tableidx to i64
  %switch.gep = getelementptr inbounds nuw [3 x ptr], ptr @switch.table.Curl_add_timecondition, i64 0, i64 %16
  %switch.load = load ptr, ptr %switch.gep, align 8
  %17 = zext nneg i8 %switch.tableidx to i64
  %switch.gep26 = getelementptr inbounds nuw [3 x i64], ptr @switch.table.Curl_add_timecondition.3, i64 0, i64 %17
  %switch.load27 = load i64, ptr %switch.gep26, align 8
  %18 = call ptr @Curl_checkheaders(ptr noundef nonnull %0, ptr noundef nonnull %switch.load, i64 noundef %switch.load27) #11
  %.not24 = icmp eq ptr %18, null
  br i1 %.not24, label %19, label %43

19:                                               ; preds = %switch.lookup
  %20 = getelementptr inbounds nuw i8, ptr %3, i64 24
  %21 = load i32, ptr %20, align 8, !tbaa !154
  %.not25 = icmp eq i32 %21, 0
  %22 = add nsw i32 %21, -1
  %narrow = select i1 %.not25, i32 6, i32 %22
  %23 = sext i32 %narrow to i64
  %24 = getelementptr inbounds [7 x ptr], ptr @Curl_wkday, i64 0, i64 %23
  %25 = load ptr, ptr %24, align 8, !tbaa !78
  %26 = getelementptr inbounds nuw i8, ptr %3, i64 12
  %27 = load i32, ptr %26, align 4, !tbaa !156
  %28 = getelementptr inbounds nuw i8, ptr %3, i64 16
  %29 = load i32, ptr %28, align 8, !tbaa !157
  %30 = sext i32 %29 to i64
  %31 = getelementptr inbounds [12 x ptr], ptr @Curl_month, i64 0, i64 %30
  %32 = load ptr, ptr %31, align 8, !tbaa !78
  %33 = getelementptr inbounds nuw i8, ptr %3, i64 20
  %34 = load i32, ptr %33, align 4, !tbaa !158
  %35 = add nsw i32 %34, 1900
  %36 = getelementptr inbounds nuw i8, ptr %3, i64 8
  %37 = load i32, ptr %36, align 8, !tbaa !159
  %38 = getelementptr inbounds nuw i8, ptr %3, i64 4
  %39 = load i32, ptr %38, align 4, !tbaa !160
  %40 = load i32, ptr %3, align 8, !tbaa !161
  %41 = call i32 (ptr, i64, ptr, ...) @curl_msnprintf(ptr noundef nonnull %4, i64 noundef 80, ptr noundef nonnull @.str.23, ptr noundef nonnull %switch.load, ptr noundef %25, i32 noundef %27, ptr noundef %32, i32 noundef %35, i32 noundef %37, i32 noundef %39, i32 noundef %40) #11
  %42 = call i32 @Curl_dyn_add(ptr noundef %1, ptr noundef nonnull %4) #11
  br label %43

43:                                               ; preds = %13, %switch.lookup, %2, %19, %12
  %.021 = phi i32 [ %11, %12 ], [ %42, %19 ], [ 0, %2 ], [ 43, %13 ], [ 0, %switch.lookup ]
  call void @llvm.lifetime.end.p0(i64 80, ptr nonnull %4) #11
  call void @llvm.lifetime.end.p0(i64 56, ptr nonnull %3) #11
  ret i32 %.021
}